target datalayout = "e-m:e-p270:32:32-p271:32:32-p272:64:64-i64:64-i128:128-f80:128-n8:16:32:64-S128"
target triple = "x86_64-pc-linux-gnu"

%struct.cli_bc_ctx = type { i8, i16, i32, ptr, ptr, i32, i32, ptr, ptr, ptr, i32, i32, i64, ptr, ptr, ptr, %struct.cli_bc_hooks, %struct.cli_exe_info, [64 x i32], [64 x i32], i32, ptr, ptr, i32, i32, i32, i32, ptr, i32, ptr, ptr, i32, i32, i32, i32, i32, i32, ptr, ptr, ptr, ptr, ptr, ptr, ptr, i32, i32, i32, i32, ptr, ptr, ptr, ptr, ptr, i32, i32, i32, i32, ptr, ptr, ptr, ptr, i32, i32, i32, ptr, i32, ptr, i32, i32, ptr, i32 }
%struct.cli_bc_hooks = type { ptr, ptr, ptr, ptr, ptr }
%struct.cli_exe_info = type { ptr, i32, i32, i16, i32, i32, %struct.cli_hashset, i32, i32, i32, i32, i32, i32, i32, i32, i32, %struct.pe_image_file_hdr, %union.anon, [16 x %struct.pe_image_data_dir] }
%struct.cli_hashset = type { ptr, ptr, ptr, i32, i32, i32, i32 }
%struct.pe_image_file_hdr = type { i32, i16, i16, i32, i32, i32, i16, i16 }
%union.anon = type { %struct.pe_image_optional_hdr64 }
%struct.pe_image_optional_hdr64 = type { i16, i8, i8, i32, i32, i32, i32, i32, i64, i32, i32, i16, i16, i16, i16, i16, i16, i32, i32, i32, i32, i16, i16, i64, i64, i64, i64, i32, i32 }
%struct.pe_image_data_dir = type { i32, i32 }
%struct.cli_environment = type { i32, i32, i32, i32, i32, i32, i32, [65 x i8], [65 x i8], [65 x i8], [65 x i8], [65 x i8], [65 x i8], [65 x i8], i8, i8, i8, i8, i8, i8, i8, i8, i8 }

@.str.119 = private unnamed_addr constant [46 x i8] c"check_platform(0x%08x,0x%08x,0x%08x) = match\0A\00", align 1

; Function Attrs: nounwind uwtable
define internal i32 @check_bits(i32 noundef %0, i32 noundef %1, i8 noundef zeroext %2, i8 noundef zeroext %3) #0 {
  %5 = alloca i32, align 4
  %6 = alloca i32, align 4
  %7 = alloca i32, align 4
  %8 = alloca i8, align 1
  %9 = alloca i8, align 1
  %10 = alloca i8, align 1
  %11 = alloca i8, align 1
  store i32 %0, ptr %6, align 4
  store i32 %1, ptr %7, align 4
  store i8 %2, ptr %8, align 1
  store i8 %3, ptr %9, align 1
  %12 = load i32, ptr %6, align 4
  %13 = load i8, ptr %8, align 1
  %14 = zext i8 %13 to i32
  %15 = lshr i32 %12, %14
  %16 = load i8, ptr %9, align 1
  %17 = zext i8 %16 to i32
  %18 = and i32 %15, %17
  %19 = trunc i32 %18 to i8
  store i8 %19, ptr %10, align 1
  %20 = load i32, ptr %7, align 4
  %21 = load i8, ptr %8, align 1
  %22 = zext i8 %21 to i32
  %23 = lshr i32 %20, %22
  %24 = load i8, ptr %9, align 1
  %25 = zext i8 %24 to i32
  %26 = and i32 %23, %25
  %27 = trunc i32 %26 to i8
  store i8 %27, ptr %11, align 1
  %28 = load i8, ptr %10, align 1
  %29 = zext i8 %28 to i32
  %30 = load i8, ptr %11, align 1
  %31 = zext i8 %30 to i32
  %32 = icmp eq i32 %29, %31
  br i1 %32, label %39, label %33

33:                                               ; preds = %4
  %34 = load i8, ptr %10, align 1
  %35 = zext i8 %34 to i32
  %36 = load i8, ptr %9, align 1
  %37 = zext i8 %36 to i32
  %38 = icmp eq i32 %35, %37
  br i1 %38, label %39, label %40

39:                                               ; preds = %33, %4
  store i32 1, ptr %5, align 4
  br label %41

40:                                               ; preds = %33
  store i32 0, ptr %5, align 4
  br label %41

41:                                               ; preds = %40, %39
  %42 = load i32, ptr %5, align 4
  ret i32 %42
}

; Function Attrs: nounwind uwtable
define i32 @cli_bcapi_check_platform(ptr noundef %0, i32 noundef %1, i32 noundef %2, i32 noundef %3) #0 {
  %5 = alloca ptr, align 8
  %6 = alloca i32, align 4
  %7 = alloca i32, align 4
  %8 = alloca i32, align 4
  %9 = alloca i32, align 4
  store ptr %0, ptr %5, align 8
  store i32 %1, ptr %6, align 4
  store i32 %2, ptr %7, align 4
  store i32 %3, ptr %8, align 4
  %10 = load i32, ptr %6, align 4
  %11 = load ptr, ptr %5, align 8
  %12 = getelementptr inbounds %struct.cli_bc_ctx, ptr %11, i32 0, i32 64
  %13 = load ptr, ptr %12, align 8
  %14 = getelementptr inbounds %struct.cli_environment, ptr %13, i32 0, i32 0
  %15 = load i32, ptr %14, align 4
  %16 = call i32 @check_bits(i32 noundef %10, i32 noundef %15, i8 noundef zeroext 24, i8 noundef zeroext -1)
  %17 = icmp ne i32 %16, 0
  br i1 %17, label %18, label %135

18:                                               ; preds = %4
  %19 = load i32, ptr %6, align 4
  %20 = load ptr, ptr %5, align 8
  %21 = getelementptr inbounds %struct.cli_bc_ctx, ptr %20, i32 0, i32 64
  %22 = load ptr, ptr %21, align 8
  %23 = getelementptr inbounds %struct.cli_environment, ptr %22, i32 0, i32 0
  %24 = load i32, ptr %23, align 4
  %25 = call i32 @check_bits(i32 noundef %19, i32 noundef %24, i8 noundef zeroext 20, i8 noundef zeroext 15)
  %26 = icmp ne i32 %25, 0
  br i1 %26, label %27, label %135

27:                                               ; preds = %18
  %28 = load i32, ptr %6, align 4
  %29 = load ptr, ptr %5, align 8
  %30 = getelementptr inbounds %struct.cli_bc_ctx, ptr %29, i32 0, i32 64
  %31 = load ptr, ptr %30, align 8
  %32 = getelementptr inbounds %struct.cli_environment, ptr %31, i32 0, i32 0
  %33 = load i32, ptr %32, align 4
  %34 = call i32 @check_bits(i32 noundef %28, i32 noundef %33, i8 noundef zeroext 16, i8 noundef zeroext 15)
  %35 = icmp ne i32 %34, 0
  br i1 %35, label %36, label %135

36:                                               ; preds = %27
  %37 = load i32, ptr %6, align 4
  %38 = load ptr, ptr %5, align 8
  %39 = getelementptr inbounds %struct.cli_bc_ctx, ptr %38, i32 0, i32 64
  %40 = load ptr, ptr %39, align 8
  %41 = getelementptr inbounds %struct.cli_environment, ptr %40, i32 0, i32 0
  %42 = load i32, ptr %41, align 4
  %43 = call i32 @check_bits(i32 noundef %37, i32 noundef %42, i8 noundef zeroext 8, i8 noundef zeroext -1)
  %44 = icmp ne i32 %43, 0
  br i1 %44, label %45, label %135

45:                                               ; preds = %36
  %46 = load i32, ptr %6, align 4
  %47 = load ptr, ptr %5, align 8
  %48 = getelementptr inbounds %struct.cli_bc_ctx, ptr %47, i32 0, i32 64
  %49 = load ptr, ptr %48, align 8
  %50 = getelementptr inbounds %struct.cli_environment, ptr %49, i32 0, i32 0
  %51 = load i32, ptr %50, align 4
  %52 = call i32 @check_bits(i32 noundef %46, i32 noundef %51, i8 noundef zeroext 0, i8 noundef zeroext -1)
  %53 = icmp ne i32 %52, 0
  br i1 %53, label %54, label %135

54:                                               ; preds = %45
  %55 = load i32, ptr %7, align 4
  %56 = load ptr, ptr %5, align 8
  %57 = getelementptr inbounds %struct.cli_bc_ctx, ptr %56, i32 0, i32 64
  %58 = load ptr, ptr %57, align 8
  %59 = getelementptr inbounds %struct.cli_environment, ptr %58, i32 0, i32 1
  %60 = load i32, ptr %59, align 4
  %61 = call i32 @check_bits(i32 noundef %55, i32 noundef %60, i8 noundef zeroext 28, i8 noundef zeroext 15)
  %62 = icmp ne i32 %61, 0
  br i1 %62, label %63, label %135

63:                                               ; preds = %54
  %64 = load i32, ptr %7, align 4
  %65 = load ptr, ptr %5, align 8
  %66 = getelementptr inbounds %struct.cli_bc_ctx, ptr %65, i32 0, i32 64
  %67 = load ptr, ptr %66, align 8
  %68 = getelementptr inbounds %struct.cli_environment, ptr %67, i32 0, i32 1
  %69 = load i32, ptr %68, align 4
  %70 = call i32 @check_bits(i32 noundef %64, i32 noundef %69, i8 noundef zeroext 24, i8 noundef zeroext 15)
  %71 = icmp ne i32 %70, 0
  br i1 %71, label %72, label %135

72:                                               ; preds = %63
  %73 = load i32, ptr %7, align 4
  %74 = load ptr, ptr %5, align 8
  %75 = getelementptr inbounds %struct.cli_bc_ctx, ptr %74, i32 0, i32 64
  %76 = load ptr, ptr %75, align 8
  %77 = getelementptr inbounds %struct.cli_environment, ptr %76, i32 0, i32 1
  %78 = load i32, ptr %77, align 4
  %79 = call i32 @check_bits(i32 noundef %73, i32 noundef %78, i8 noundef zeroext 16, i8 noundef zeroext -1)
  %80 = icmp ne i32 %79, 0
  br i1 %80, label %81, label %135

81:                                               ; preds = %72
  %82 = load i32, ptr %7, align 4
  %83 = load ptr, ptr %5, align 8
  %84 = getelementptr inbounds %struct.cli_bc_ctx, ptr %83, i32 0, i32 64
  %85 = load ptr, ptr %84, align 8
  %86 = getelementptr inbounds %struct.cli_environment, ptr %85, i32 0, i32 1
  %87 = load i32, ptr %86, align 4
  %88 = call i32 @check_bits(i32 noundef %82, i32 noundef %87, i8 noundef zeroext 8, i8 noundef zeroext -1)
  %89 = icmp ne i32 %88, 0
  br i1 %89, label %90, label %135

90:                                               ; preds = %81
  %91 = load i32, ptr %7, align 4
  %92 = load ptr, ptr %5, align 8
  %93 = getelementptr inbounds %struct.cli_bc_ctx, ptr %92, i32 0, i32 64
  %94 = load ptr, ptr %93, align 8
  %95 = getelementptr inbounds %struct.cli_environment, ptr %94, i32 0, i32 1
  %96 = load i32, ptr %95, align 4
  %97 = call i32 @check_bits(i32 noundef %91, i32 noundef %96, i8 noundef zeroext 0, i8 noundef zeroext -1)
  %98 = icmp ne i32 %97, 0
  br i1 %98, label %99, label %135

99:                                               ; preds = %90
  %100 = load i32, ptr %8, align 4
  %101 = load ptr, ptr %5, align 8
  %102 = getelementptr inbounds %struct.cli_bc_ctx, ptr %101, i32 0, i32 64
  %103 = load ptr, ptr %102, align 8
  %104 = getelementptr inbounds %struct.cli_environment, ptr %103, i32 0, i32 2
  %105 = load i32, ptr %104, align 4
  %106 = call i32 @check_bits(i32 noundef %100, i32 noundef %105, i8 noundef zeroext 24, i8 noundef zeroext -1)
  %107 = icmp ne i32 %106, 0
  br i1 %107, label %108, label %135

108:                                              ; preds = %99
  %109 = load i32, ptr %8, align 4
  %110 = load ptr, ptr %5, align 8
  %111 = getelementptr inbounds %struct.cli_bc_ctx, ptr %110, i32 0, i32 64
  %112 = load ptr, ptr %111, align 8
  %113 = getelementptr inbounds %struct.cli_environment, ptr %112, i32 0, i32 2
  %114 = load i32, ptr %113, align 4
  %115 = call i32 @check_bits(i32 noundef %109, i32 noundef %114, i8 noundef zeroext 16, i8 noundef zeroext -1)
  %116 = icmp ne i32 %115, 0
  br i1 %116, label %117, label %135

117:                                              ; preds = %108
  %118 = load i32, ptr %8, align 4
  %119 = load ptr, ptr %5, align 8
  %120 = getelementptr inbounds %struct.cli_bc_ctx, ptr %119, i32 0, i32 64
  %121 = load ptr, ptr %120, align 8
  %122 = getelementptr inbounds %struct.cli_environment, ptr %121, i32 0, i32 2
  %123 = load i32, ptr %122, align 4
  %124 = call i32 @check_bits(i32 noundef %118, i32 noundef %123, i8 noundef zeroext 8, i8 noundef zeroext -1)
  %125 = icmp ne i32 %124, 0
  br i1 %125, label %126, label %135

126:                                              ; preds = %117
  %127 = load i32, ptr %8, align 4
  %128 = load ptr, ptr %5, align 8
  %129 = getelementptr inbounds %struct.cli_bc_ctx, ptr %128, i32 0, i32 64
  %130 = load ptr, ptr %129, align 8
  %131 = getelementptr inbounds %struct.cli_environment, ptr %130, i32 0, i32 2
  %132 = load i32, ptr %131, align 4
  %133 = call i32 @check_bits(i32 noundef %127, i32 noundef %132, i8 noundef zeroext 0, i8 noundef zeroext -1)
  %134 = icmp ne i32 %133, 0
  br label %135

135:                                              ; preds = %126, %117, %108, %99, %90, %81, %72, %63, %54, %45, %36, %27, %18, %4
  %136 = phi i1 [ false, %117 ], [ false, %108 ], [ false, %99 ], [ false, %90 ], [ false, %81 ], [ false, %72 ], [ false, %63 ], [ false, %54 ], [ false, %45 ], [ false, %36 ], [ false, %27 ], [ false, %18 ], [ false, %4 ], [ %134, %126 ]
  %137 = zext i1 %136 to i32
  store i32 %137, ptr %9, align 4
  %138 = load i32, ptr %9, align 4
  %139 = icmp ne i32 %138, 0
  br i1 %139, label %140, label %144

140:                                              ; preds = %135
  %141 = load i32, ptr %6, align 4
  %142 = load i32, ptr %7, align 4
  %143 = load i32, ptr %8, align 4
  call void (ptr, ...) @cli_dbgmsg(ptr noundef @.str.119, i32 noundef %141, i32 noundef %142, i32 noundef %143)
  br label %144

144:                                              ; preds = %140, %135
  %145 = load i32, ptr %9, align 4
  ret i32 %145
}