; Function Attrs: nounwind uwtable
define noundef i32 @cli_bcapi_check_platform(ptr nocapture noundef readonly %0, i32 noundef %1, i32 noundef %2, i32 noundef %3) local_unnamed_addr #1 {
  %5 = getelementptr inbounds i8, ptr %0, i64 1296
  %6 = load ptr, ptr %5, align 8
  %7 = load i32, ptr %6, align 4
  %8 = lshr i32 %1, 24
  %9 = lshr i32 %7, 24
  %10 = icmp ne i32 %8, %9
  %11 = icmp ne i32 %8, 255
  %or.cond.i.not = and i1 %11, %10
  br i1 %or.cond.i.not, label %.thread, label %12

12:                                               ; preds = %4
  %13 = lshr i32 %1, 20
  %14 = trunc i32 %13 to i8
  %15 = and i8 %14, 15
  %16 = lshr i32 %7, 20
  %17 = trunc i32 %16 to i8
  %18 = and i8 %17, 15
  %19 = icmp ne i8 %15, %18
  %20 = icmp ne i8 %15, 15
  %or.cond.i44.not = and i1 %20, %19
  br i1 %or.cond.i44.not, label %.thread, label %21

21:                                               ; preds = %12
  %22 = lshr i32 %1, 16
  %23 = trunc i32 %22 to i8
  %24 = and i8 %23, 15
  %25 = lshr i32 %7, 16
  %26 = trunc i32 %25 to i8
  %27 = and i8 %26, 15
  %28 = icmp ne i8 %24, %27
  %29 = icmp ne i8 %24, 15
  %or.cond.i46.not = and i1 %29, %28
  br i1 %or.cond.i46.not, label %.thread, label %30

30:                                               ; preds = %21
  %31 = lshr i32 %1, 8
  %32 = trunc i32 %31 to i8
  %33 = lshr i32 %7, 8
  %34 = trunc i32 %33 to i8
  %35 = icmp ne i8 %32, %34
  %36 = icmp ne i8 %32, -1
  %or.cond.i48.not = and i1 %36, %35
  br i1 %or.cond.i48.not, label %.thread, label %37

37:                                               ; preds = %30
  %38 = trunc i32 %1 to i8
  %39 = trunc i32 %7 to i8
  %40 = icmp ne i8 %38, %39
  %41 = icmp ne i8 %38, -1
  %or.cond.i50.not = and i1 %41, %40
  br i1 %or.cond.i50.not, label %.thread, label %42

42:                                               ; preds = %37
  %43 = getelementptr inbounds i8, ptr %6, i64 4
  %44 = load i32, ptr %43, align 4
  %45 = lshr i32 %2, 28
  %46 = lshr i32 %44, 28
  %47 = icmp ne i32 %45, %46
  %48 = icmp ne i32 %45, 15
  %or.cond.i52.not = and i1 %48, %47
  br i1 %or.cond.i52.not, label %.thread, label %49

49:                                               ; preds = %42
  %50 = lshr i32 %2, 24
  %51 = trunc nuw i32 %50 to i8
  %52 = and i8 %51, 15
  %53 = lshr i32 %44, 24
  %54 = trunc nuw i32 %53 to i8
  %55 = and i8 %54, 15
  %56 = icmp ne i8 %52, %55
  %57 = icmp ne i8 %52, 15
  %or.cond.i54.not = and i1 %57, %56
  br i1 %or.cond.i54.not, label %.thread, label %58

58:                                               ; preds = %49
  %59 = lshr i32 %2, 16
  %60 = trunc i32 %59 to i8
  %61 = lshr i32 %44, 16
  %62 = trunc i32 %61 to i8
  %63 = icmp ne i8 %60, %62
  %64 = icmp ne i8 %60, -1
  %or.cond.i56.not = and i1 %64, %63
  br i1 %or.cond.i56.not, label %.thread, label %65

65:                                               ; preds = %58
  %66 = lshr i32 %2, 8
  %67 = trunc i32 %66 to i8
  %68 = lshr i32 %44, 8
  %69 = trunc i32 %68 to i8
  %70 = icmp ne i8 %67, %69
  %71 = icmp ne i8 %67, -1
  %or.cond.i58.not = and i1 %71, %70
  br i1 %or.cond.i58.not, label %.thread, label %72

72:                                               ; preds = %65
  %73 = trunc i32 %2 to i8
  %74 = trunc i32 %44 to i8
  %75 = icmp ne i8 %73, %74
  %76 = icmp ne i8 %73, -1
  %or.cond.i60.not = and i1 %76, %75
  br i1 %or.cond.i60.not, label %.thread, label %77

77:                                               ; preds = %72
  %78 = getelementptr inbounds i8, ptr %6, i64 8
  %79 = load i32, ptr %78, align 4
  %80 = lshr i32 %3, 24
  %81 = lshr i32 %79, 24
  %82 = icmp ne i32 %80, %81
  %83 = icmp ne i32 %80, 255
  %or.cond.i62.not = and i1 %83, %82
  br i1 %or.cond.i62.not, label %.thread, label %84

84:                                               ; preds = %77
  %85 = lshr i32 %3, 16
  %86 = trunc i32 %85 to i8
  %87 = lshr i32 %79, 16
  %88 = trunc i32 %87 to i8
  %89 = icmp ne i8 %86, %88
  %90 = icmp ne i8 %86, -1
  %or.cond.i64.not = and i1 %90, %89
  br i1 %or.cond.i64.not, label %.thread, label %91

91:                                               ; preds = %84
  %92 = lshr i32 %3, 8
  %93 = trunc i32 %92 to i8
  %94 = lshr i32 %79, 8
  %95 = trunc i32 %94 to i8
  %96 = icmp ne i8 %93, %95
  %97 = icmp ne i8 %93, -1
  %or.cond.i66.not = and i1 %97, %96
  br i1 %or.cond.i66.not, label %.thread, label %98

98:                                               ; preds = %91
  %99 = trunc i32 %3 to i8
  %100 = trunc i32 %79 to i8
  %101 = icmp eq i8 %99, %100
  %102 = icmp eq i8 %99, -1
  %or.cond.i68 = or i1 %102, %101
  br i1 %or.cond.i68, label %103, label %.thread

103:                                              ; preds = %98
  tail call void (ptr, ...) @cli_dbgmsg(ptr noundef nonnull @.str.119, i32 noundef %1, i32 noundef %2, i32 noundef %3) #29
  br label %.thread

.thread:                                          ; preds = %4, %12, %21, %30, %37, %42, %49, %58, %65, %72, %77, %84, %91, %103, %98
  %104 = phi i32 [ 1, %103 ], [ 0, %98 ], [ 0, %91 ], [ 0, %84 ], [ 0, %77 ], [ 0, %72 ], [ 0, %65 ], [ 0, %58 ], [ 0, %49 ], [ 0, %42 ], [ 0, %37 ], [ 0, %30 ], [ 0, %21 ], [ 0, %12 ], [ 0, %4 ]
  ret i32 %104
}